; Function Attrs: nounwind uwtable
define dso_local void @strbuf_addf(ptr noundef captures(none) %0, ptr noundef %1, ...) local_unnamed_addr #3 {
  %3 = alloca [1 x %struct.__va_list_tag], align 16
  call void @llvm.lifetime.start.p0(i64 24, ptr nonnull %3) #25
  call void @llvm.va_start.p0(ptr nonnull %3)
  call void @strbuf_vaddf(ptr noundef %0, ptr noundef %1, ptr noundef nonnull %3)
  call void @llvm.va_end.p0(ptr nonnull %3)
  call void @llvm.lifetime.end.p0(i64 24, ptr nonnull %3) #25
  ret void
}